; Function Attrs: mustprogress uwtable
define void @_ZN6colvar11eigenvector19calc_force_invgradsEv(ptr noundef nonnull align 8 captures(none) dereferenceable(1672) initializes((936, 944)) %0) unnamed_addr #2 align 2 {
  %2 = getelementptr inbounds nuw i8, ptr %0, i64 1608
  %3 = load ptr, ptr %2, align 8, !tbaa !358
  tail call void @_ZN12colvarmodule10atom_group17read_total_forcesEv(ptr noundef nonnull align 8 dereferenceable(1496) %3)
  %4 = getelementptr inbounds nuw i8, ptr %0, i64 936
  store double 0.000000e+00, ptr %4, align 8, !tbaa !114
  %5 = load ptr, ptr %2, align 8, !tbaa !358
  %6 = getelementptr inbounds nuw i8, ptr %5, i64 504
  %7 = getelementptr inbounds nuw i8, ptr %5, i64 512
  %8 = load ptr, ptr %7, align 8, !tbaa !264
  %9 = load ptr, ptr %6, align 8, !tbaa !265
  %.not = icmp eq ptr %8, %9
  br i1 %.not, label %16, label %.lr.ph

.lr.ph:                                           ; preds = %1
  %10 = ptrtoint ptr %8 to i64
  %11 = ptrtoint ptr %9 to i64
  %12 = sub i64 %10, %11
  %13 = sdiv exact i64 %12, 120
  %14 = getelementptr inbounds nuw i8, ptr %0, i64 1664
  %15 = load double, ptr %14, align 8, !tbaa !386
  %umax = tail call i64 @llvm.umax.i64(i64 %13, i64 1)
  br label %17

._crit_edge:                                      ; preds = %17
  store double %38, ptr %4, align 8, !tbaa !114
  br label %16

16:                                               ; preds = %._crit_edge, %1
  ret void

17:                                               ; preds = %.lr.ph, %17
  %.04 = phi i64 [ 0, %.lr.ph ], [ %39, %17 ]
  %18 = phi double [ 0.000000e+00, %.lr.ph ], [ %38, %17 ]
  %19 = getelementptr inbounds nuw %"class.colvarmodule::atom", ptr %9, i64 %.04
  %20 = getelementptr inbounds nuw i8, ptr %19, i64 96
  %21 = load double, ptr %20, align 8, !tbaa !95, !noalias !402
  %22 = fmul double %15, %21
  %23 = getelementptr inbounds nuw i8, ptr %19, i64 104
  %24 = load double, ptr %23, align 8, !tbaa !96, !noalias !402
  %25 = fmul double %15, %24
  %26 = getelementptr inbounds nuw i8, ptr %19, i64 112
  %27 = load double, ptr %26, align 8, !tbaa !97, !noalias !402
  %28 = fmul double %15, %27
  %29 = getelementptr inbounds nuw i8, ptr %19, i64 72
  %30 = load double, ptr %29, align 8, !tbaa !95
  %31 = getelementptr inbounds nuw i8, ptr %19, i64 80
  %32 = load double, ptr %31, align 8, !tbaa !96
  %33 = fmul double %25, %32
  %34 = tail call double @llvm.fmuladd.f64(double %22, double %30, double %33)
  %35 = getelementptr inbounds nuw i8, ptr %19, i64 88
  %36 = load double, ptr %35, align 8, !tbaa !97
  %37 = tail call noundef double @llvm.fmuladd.f64(double %28, double %36, double %34)
  %38 = fadd double %18, %37
  %39 = add nuw i64 %.04, 1
  %exitcond.not = icmp eq i64 %39, %umax
  br i1 %exitcond.not, label %._crit_edge, label %17, !llvm.loop !405
}